; Function Attrs: mustprogress nofree norecurse nosync nounwind willreturn memory(argmem: readwrite) uwtable
define void @dt_printing_get_screen_rel_pos(ptr noundef readonly captures(none) %0, ptr noundef readonly captures(none) %1, ptr noundef writeonly captures(none) initializes((0, 16)) %2) local_unnamed_addr #5 {
  %4 = alloca %struct._image_pos, align 4
  call void @llvm.lifetime.start.p0(i64 16, ptr nonnull %4) #10
  call void @llvm.memset.p0.i64(ptr noundef nonnull align 4 dereferenceable(16) %4, i8 0, i64 16, i1 false)
  %5 = getelementptr inbounds nuw i8, ptr %1, i64 56
  %6 = getelementptr inbounds nuw i8, ptr %1, i64 36
  %7 = load i32, ptr %6, align 4, !tbaa !6
  %8 = getelementptr inbounds nuw i8, ptr %1, i64 20
  %9 = load i32, ptr %8, align 4, !tbaa !85
  %10 = getelementptr inbounds nuw i8, ptr %1, i64 24
  %11 = load i32, ptr %10, align 8, !tbaa !86
  call void @_align_pos(ptr noundef nonnull readonly %5, i32 noundef %7, i32 noundef %9, i32 noundef %11, ptr noundef nonnull %4)
  %12 = getelementptr inbounds nuw i8, ptr %0, i64 1952
  %13 = load float, ptr %12, align 8, !tbaa !24
  %14 = getelementptr inbounds nuw i8, ptr %0, i64 1956
  %15 = load float, ptr %14, align 4, !tbaa !25
  %16 = getelementptr inbounds nuw i8, ptr %0, i64 1960
  %17 = load float, ptr %16, align 8, !tbaa !26
  %18 = getelementptr inbounds nuw i8, ptr %0, i64 1964
  %19 = load float, ptr %18, align 4, !tbaa !27
  %20 = load float, ptr %4, align 4, !tbaa !28
  %21 = fsub reassoc nsz arcp contract afn float %20, %13
  %22 = fdiv reassoc nsz arcp contract afn float %21, %17
  store float %22, ptr %2, align 4, !tbaa !28
  %23 = getelementptr inbounds nuw i8, ptr %4, i64 4
  %24 = load float, ptr %23, align 4, !tbaa !29
  %25 = fsub reassoc nsz arcp contract afn float %24, %15
  %26 = fdiv reassoc nsz arcp contract afn float %25, %19
  %27 = getelementptr inbounds nuw i8, ptr %2, i64 4
  store float %26, ptr %27, align 4, !tbaa !29
  %28 = getelementptr inbounds nuw i8, ptr %4, i64 8
  %29 = load float, ptr %28, align 4, !tbaa !30
  %30 = fdiv reassoc nsz arcp contract afn float %29, %17
  %31 = getelementptr inbounds nuw i8, ptr %2, i64 8
  store float %30, ptr %31, align 4, !tbaa !30
  %32 = getelementptr inbounds nuw i8, ptr %4, i64 12
  %33 = load float, ptr %32, align 4, !tbaa !31
  %34 = fdiv reassoc nsz arcp contract afn float %33, %19
  %35 = getelementptr inbounds nuw i8, ptr %2, i64 12
  store float %34, ptr %35, align 4, !tbaa !31
  call void @llvm.lifetime.end.p0(i64 16, ptr nonnull %4) #10
  ret void
}